target datalayout = "e-m:e-p270:32:32-p271:32:32-p272:64:64-i64:64-i128:128-f80:128-n8:16:32:64-S128"
target triple = "x86_64-pc-linux-gnu"

%struct.WOLFSSL = type <{ ptr, ptr, ptr, ptr, [48 x i8], [48 x i8], ptr, ptr, ptr, ptr, ptr, ptr, ptr, ptr, ptr, ptr, ptr, ptr, ptr, i32, [4 x i8], %struct.WOLFSSL_CIPHER, ptr, %struct.Ciphers, %struct.Ciphers, [8 x i8], %struct.Buffers, ptr, ptr, %struct.WOLFSSL_ALERT_HISTORY, %struct.WOLFSSL_ALERT, i32, i32, i32, i32, i32, i32, i32, i16, [2 x i8], i32, i8, %struct.RecordLayerHeader, %struct.MsgsReceived, %struct.ProtocolVersion, %struct.ProtocolVersion, %struct.CipherSpecs, [2 x i8], %struct.Keys, %struct.Options, ptr, i8, i8, i16, [10 x i16], i8, i8, i16, i16, [38 x i8], i32, i32, [4 x i8], ptr, i8, i8, [6 x i8], ptr, ptr, i16, i8, i8, i32, i8, [3 x i8], i32, %struct.OneTimeAuth, ptr }>
%struct.WOLFSSL_CIPHER = type { i8, i8, ptr }
%struct.Ciphers = type { ptr, ptr, ptr, ptr, i8, i8 }
%struct.Buffers = type { %struct.bufferStatic, %struct.bufferStatic, %struct.WOLFSSL_BUFFER_INFO, %struct.WOLFSSL_BUFFER_INFO, %struct.WOLFSSL_BUFFER_INFO, %struct.WOLFSSL_BUFFER_INFO, i32, i32, i8, i8, i8, i8, %struct.WOLFSSL_BUFFER_INFO, %struct.WOLFSSL_BUFFER_INFO, %struct.WOLFSSL_BUFFER_INFO, %struct.WOLFSSL_BUFFER_INFO, ptr, ptr, ptr, i8, i8, i32, i32, ptr, i32, [1 x ptr] }
%struct.bufferStatic = type { [5 x i8], ptr, i32, i32, i32, i8, i8 }
%struct.WOLFSSL_BUFFER_INFO = type { ptr, i32 }
%struct.WOLFSSL_ALERT_HISTORY = type { %struct.WOLFSSL_ALERT, %struct.WOLFSSL_ALERT }
%struct.WOLFSSL_ALERT = type { i32, i32 }
%struct.RecordLayerHeader = type { i8, i8, i8, [2 x i8] }
%struct.MsgsReceived = type { i32 }
%struct.ProtocolVersion = type { i8, i8 }
%struct.CipherSpecs = type { i16, i16, i16, i16, i8, i8, i8, i8, i8, i8, i8, i8 }
%struct.Keys = type { [64 x i8], [64 x i8], [32 x i8], [32 x i8], [16 x i8], [16 x i8], [8 x i8], [12 x i8], [12 x i8], i32, i32, i32, i32, i32, i32, i8, i8, i8, i8 }
%struct.Options = type { i64, i64, i8, i8, i8, i8, i8, i8, i8, i8, i8, i8, i8, i8, i8, i8, i8, i8, i8, i8, i8, i8, i8, i16, i16, i16, i16, i16, i8 }
%struct.OneTimeAuth = type { ptr, i8 }

; Function Attrs: nounwind uwtable
define i32 @RetrySendAlert(ptr noundef %0) #0 {
  %2 = alloca i32, align 4
  %3 = alloca ptr, align 8
  %4 = alloca i32, align 4
  %5 = alloca i32, align 4
  %6 = alloca i32, align 4
  %7 = alloca i32, align 4
  store ptr %0, ptr %3, align 8, !tbaa !3
  call void @llvm.lifetime.start.p0(i64 4, ptr %4) #9
  store i32 0, ptr %4, align 4, !tbaa !47
  call void @llvm.lifetime.start.p0(i64 4, ptr %5) #9
  call void @llvm.lifetime.start.p0(i64 4, ptr %6) #9
  br label %8

8:                                                ; preds = %1
  br label %9

9:                                                ; preds = %8
  br label %10

10:                                               ; preds = %9
  %11 = load ptr, ptr %3, align 8, !tbaa !3
  %12 = icmp eq ptr %11, null
  br i1 %12, label %13, label %14

13:                                               ; preds = %10
  store i32 -173, ptr %2, align 4
  store i32 1, ptr %7, align 4
  br label %38

14:                                               ; preds = %10
  %15 = load ptr, ptr %3, align 8, !tbaa !3
  %16 = getelementptr inbounds nuw %struct.WOLFSSL, ptr %15, i32 0, i32 30
  %17 = getelementptr inbounds nuw %struct.WOLFSSL_ALERT, ptr %16, i32 0, i32 0
  %18 = load i32, ptr %17, align 16, !tbaa !279
  store i32 %18, ptr %5, align 4, !tbaa !47
  %19 = load ptr, ptr %3, align 8, !tbaa !3
  %20 = getelementptr inbounds nuw %struct.WOLFSSL, ptr %19, i32 0, i32 30
  %21 = getelementptr inbounds nuw %struct.WOLFSSL_ALERT, ptr %20, i32 0, i32 1
  %22 = load i32, ptr %21, align 4, !tbaa !278
  store i32 %22, ptr %6, align 4, !tbaa !47
  %23 = load i32, ptr %6, align 4, !tbaa !47
  %24 = icmp eq i32 %23, 0
  br i1 %24, label %25, label %26

25:                                               ; preds = %14
  store i32 0, ptr %2, align 4
  store i32 1, ptr %7, align 4
  br label %38

26:                                               ; preds = %14
  %27 = load ptr, ptr %3, align 8, !tbaa !3
  %28 = getelementptr inbounds nuw %struct.WOLFSSL, ptr %27, i32 0, i32 30
  %29 = getelementptr inbounds nuw %struct.WOLFSSL_ALERT, ptr %28, i32 0, i32 0
  store i32 0, ptr %29, align 16, !tbaa !279
  %30 = load ptr, ptr %3, align 8, !tbaa !3
  %31 = getelementptr inbounds nuw %struct.WOLFSSL, ptr %30, i32 0, i32 30
  %32 = getelementptr inbounds nuw %struct.WOLFSSL_ALERT, ptr %31, i32 0, i32 1
  store i32 0, ptr %32, align 4, !tbaa !278
  %33 = load ptr, ptr %3, align 8, !tbaa !3
  %34 = load i32, ptr %6, align 4, !tbaa !47
  %35 = load i32, ptr %5, align 4, !tbaa !47
  %36 = call i32 @SendAlert_ex(ptr noundef %33, i32 noundef %34, i32 noundef %35)
  store i32 %36, ptr %4, align 4, !tbaa !47
  %37 = load i32, ptr %4, align 4, !tbaa !47
  store i32 %37, ptr %2, align 4
  store i32 1, ptr %7, align 4
  br label %38

38:                                               ; preds = %26, %25, %13
  call void @llvm.lifetime.end.p0(i64 4, ptr %6) #9
  call void @llvm.lifetime.end.p0(i64 4, ptr %5) #9
  call void @llvm.lifetime.end.p0(i64 4, ptr %4) #9
  %39 = load i32, ptr %2, align 4
  ret i32 %39
}

; Function Attrs: nounwind uwtable
define i32 @SendAlert(ptr noundef %0, i32 noundef %1, i32 noundef %2) #0 {
  %4 = alloca i32, align 4
  %5 = alloca ptr, align 8
  %6 = alloca i32, align 4
  %7 = alloca i32, align 4
  %8 = alloca i32, align 4
  %9 = alloca i32, align 4
  store ptr %0, ptr %5, align 8, !tbaa !3
  store i32 %1, ptr %6, align 4, !tbaa !47
  store i32 %2, ptr %7, align 4, !tbaa !47
  call void @llvm.lifetime.start.p0(i64 4, ptr %8) #9
  store i32 0, ptr %8, align 4, !tbaa !47
  br label %10

10:                                               ; preds = %3
  br label %11

11:                                               ; preds = %10
  br label %12

12:                                               ; preds = %11
  %13 = load ptr, ptr %5, align 8, !tbaa !3
  %14 = icmp eq ptr %13, null
  br i1 %14, label %15, label %16

15:                                               ; preds = %12
  store i32 -173, ptr %4, align 4
  store i32 1, ptr %9, align 4
  br label %60

16:                                               ; preds = %12
  %17 = load ptr, ptr %5, align 8, !tbaa !3
  %18 = getelementptr inbounds nuw %struct.WOLFSSL, ptr %17, i32 0, i32 30
  %19 = getelementptr inbounds nuw %struct.WOLFSSL_ALERT, ptr %18, i32 0, i32 1
  %20 = load i32, ptr %19, align 4, !tbaa !278
  %21 = icmp ne i32 %20, 0
  br i1 %21, label %22, label %54

22:                                               ; preds = %16
  %23 = load ptr, ptr %5, align 8, !tbaa !3
  %24 = call i32 @RetrySendAlert(ptr noundef %23)
  store i32 %24, ptr %8, align 4, !tbaa !47
  %25 = load i32, ptr %8, align 4, !tbaa !47
  %26 = icmp ne i32 %25, 0
  br i1 %26, label %27, label %53

27:                                               ; preds = %22
  %28 = load ptr, ptr %5, align 8, !tbaa !3
  %29 = getelementptr inbounds nuw %struct.WOLFSSL, ptr %28, i32 0, i32 30
  %30 = getelementptr inbounds nuw %struct.WOLFSSL_ALERT, ptr %29, i32 0, i32 1
  %31 = load i32, ptr %30, align 4, !tbaa !278
  %32 = icmp eq i32 %31, 0
  br i1 %32, label %42, label %33

33:                                               ; preds = %27
  %34 = load ptr, ptr %5, align 8, !tbaa !3
  %35 = getelementptr inbounds nuw %struct.WOLFSSL, ptr %34, i32 0, i32 30
  %36 = getelementptr inbounds nuw %struct.WOLFSSL_ALERT, ptr %35, i32 0, i32 1
  %37 = load i32, ptr %36, align 4, !tbaa !278
  %38 = icmp ne i32 %37, 2
  br i1 %38, label %39, label %51

39:                                               ; preds = %33
  %40 = load i32, ptr %6, align 4, !tbaa !47
  %41 = icmp eq i32 %40, 2
  br i1 %41, label %42, label %51

42:                                               ; preds = %39, %27
  %43 = load i32, ptr %7, align 4, !tbaa !47
  %44 = load ptr, ptr %5, align 8, !tbaa !3
  %45 = getelementptr inbounds nuw %struct.WOLFSSL, ptr %44, i32 0, i32 30
  %46 = getelementptr inbounds nuw %struct.WOLFSSL_ALERT, ptr %45, i32 0, i32 0
  store i32 %43, ptr %46, align 16, !tbaa !279
  %47 = load i32, ptr %6, align 4, !tbaa !47
  %48 = load ptr, ptr %5, align 8, !tbaa !3
  %49 = getelementptr inbounds nuw %struct.WOLFSSL, ptr %48, i32 0, i32 30
  %50 = getelementptr inbounds nuw %struct.WOLFSSL_ALERT, ptr %49, i32 0, i32 1
  store i32 %47, ptr %50, align 4, !tbaa !278
  br label %51

51:                                               ; preds = %42, %39, %33
  %52 = load i32, ptr %8, align 4, !tbaa !47
  store i32 %52, ptr %4, align 4
  store i32 1, ptr %9, align 4
  br label %60

53:                                               ; preds = %22
  br label %54

54:                                               ; preds = %53, %16
  %55 = load ptr, ptr %5, align 8, !tbaa !3
  %56 = load i32, ptr %6, align 4, !tbaa !47
  %57 = load i32, ptr %7, align 4, !tbaa !47
  %58 = call i32 @SendAlert_ex(ptr noundef %55, i32 noundef %56, i32 noundef %57)
  store i32 %58, ptr %8, align 4, !tbaa !47
  %59 = load i32, ptr %8, align 4, !tbaa !47
  store i32 %59, ptr %4, align 4
  store i32 1, ptr %9, align 4
  br label %60

60:                                               ; preds = %54, %51, %15
  call void @llvm.lifetime.end.p0(i64 4, ptr %8) #9
  %61 = load i32, ptr %4, align 4
  ret i32 %61
}

; Function Attrs: nounwind uwtable
define i32 @DoApplicationData(ptr noundef %0, ptr noundef %1, ptr noundef %2, i32 noundef %3) #0 {
  %5 = alloca i32, align 4
  %6 = alloca ptr, align 8
  %7 = alloca ptr, align 8
  %8 = alloca ptr, align 8
  %9 = alloca i32, align 4
  %10 = alloca i32, align 4
  %11 = alloca i32, align 4
  %12 = alloca i32, align 4
  %13 = alloca ptr, align 8
  %14 = alloca i32, align 4
  %15 = alloca i32, align 4
  store ptr %0, ptr %6, align 8, !tbaa !3
  store ptr %1, ptr %7, align 8, !tbaa !89
  store ptr %2, ptr %8, align 8, !tbaa !143
  store i32 %3, ptr %9, align 4, !tbaa !47
  call void @llvm.lifetime.start.p0(i64 4, ptr %10) #9
  %16 = load ptr, ptr %6, align 8, !tbaa !3
  %17 = getelementptr inbounds nuw %struct.WOLFSSL, ptr %16, i32 0, i32 38
  %18 = load i16, ptr %17, align 4, !tbaa !410
  %19 = zext i16 %18 to i32
  store i32 %19, ptr %10, align 4, !tbaa !47
  call void @llvm.lifetime.start.p0(i64 4, ptr %11) #9
  %20 = load ptr, ptr %8, align 8, !tbaa !143
  %21 = load i32, ptr %20, align 4, !tbaa !47
  store i32 %21, ptr %11, align 4, !tbaa !47
  call void @llvm.lifetime.start.p0(i64 4, ptr %12) #9
  call void @llvm.lifetime.start.p0(i64 8, ptr %13) #9
  %22 = load ptr, ptr %7, align 8, !tbaa !89
  %23 = load i32, ptr %11, align 4, !tbaa !47
  %24 = zext i32 %23 to i64
  %25 = getelementptr inbounds nuw i8, ptr %22, i64 %24
  store ptr %25, ptr %13, align 8, !tbaa !89
  %26 = load ptr, ptr %6, align 8, !tbaa !3
  %27 = getelementptr inbounds nuw %struct.WOLFSSL, ptr %26, i32 0, i32 49
  %28 = getelementptr inbounds nuw %struct.Options, ptr %27, i32 0, i32 16
  %29 = load i8, ptr %28, align 2, !tbaa !275
  %30 = zext i8 %29 to i32
  %31 = icmp eq i32 %30, 0
  br i1 %31, label %32, label %42

32:                                               ; preds = %4
  br label %33

33:                                               ; preds = %32
  br label %34

34:                                               ; preds = %33
  br label %35

35:                                               ; preds = %34
  %36 = load i32, ptr %9, align 4, !tbaa !47
  %37 = icmp eq i32 %36, 0
  br i1 %37, label %38, label %41

38:                                               ; preds = %35
  %39 = load ptr, ptr %6, align 8, !tbaa !3
  %40 = call i32 @SendAlert(ptr noundef %39, i32 noundef 2, i32 noundef 10)
  br label %41

41:                                               ; preds = %38, %35
  store i32 -373, ptr %5, align 4
  store i32 1, ptr %14, align 4
  br label %88

42:                                               ; preds = %4
  %43 = load i32, ptr %10, align 4, !tbaa !47
  %44 = load ptr, ptr %6, align 8, !tbaa !3
  %45 = getelementptr inbounds nuw %struct.WOLFSSL, ptr %44, i32 0, i32 48
  %46 = getelementptr inbounds nuw %struct.Keys, ptr %45, i32 0, i32 14
  %47 = load i32, ptr %46, align 4, !tbaa !348
  %48 = sub i32 %43, %47
  store i32 %48, ptr %12, align 4, !tbaa !47
  %49 = load i32, ptr %12, align 4, !tbaa !47
  %50 = icmp slt i32 %49, 0
  br i1 %50, label %51, label %61

51:                                               ; preds = %42
  br label %52

52:                                               ; preds = %51
  br label %53

53:                                               ; preds = %52
  br label %54

54:                                               ; preds = %53
  %55 = load i32, ptr %9, align 4, !tbaa !47
  %56 = icmp eq i32 %55, 0
  br i1 %56, label %57, label %60

57:                                               ; preds = %54
  %58 = load ptr, ptr %6, align 8, !tbaa !3
  %59 = call i32 @SendAlert(ptr noundef %58, i32 noundef 2, i32 noundef 10)
  br label %60

60:                                               ; preds = %57, %54
  store i32 -328, ptr %5, align 4
  store i32 1, ptr %14, align 4
  br label %88

61:                                               ; preds = %42
  %62 = load i32, ptr %12, align 4, !tbaa !47
  %63 = icmp ne i32 %62, 0
  br i1 %63, label %64, label %79

64:                                               ; preds = %61
  call void @llvm.lifetime.start.p0(i64 4, ptr %15) #9
  %65 = load i32, ptr %12, align 4, !tbaa !47
  store i32 %65, ptr %15, align 4, !tbaa !47
  %66 = load i32, ptr %15, align 4, !tbaa !47
  %67 = load i32, ptr %11, align 4, !tbaa !47
  %68 = add i32 %67, %66
  store i32 %68, ptr %11, align 4, !tbaa !47
  %69 = load ptr, ptr %13, align 8, !tbaa !89
  %70 = load ptr, ptr %6, align 8, !tbaa !3
  %71 = getelementptr inbounds nuw %struct.WOLFSSL, ptr %70, i32 0, i32 26
  %72 = getelementptr inbounds nuw %struct.Buffers, ptr %71, i32 0, i32 3
  %73 = getelementptr inbounds nuw %struct.WOLFSSL_BUFFER_INFO, ptr %72, i32 0, i32 0
  store ptr %69, ptr %73, align 16, !tbaa !411
  %74 = load i32, ptr %12, align 4, !tbaa !47
  %75 = load ptr, ptr %6, align 8, !tbaa !3
  %76 = getelementptr inbounds nuw %struct.WOLFSSL, ptr %75, i32 0, i32 26
  %77 = getelementptr inbounds nuw %struct.Buffers, ptr %76, i32 0, i32 3
  %78 = getelementptr inbounds nuw %struct.WOLFSSL_BUFFER_INFO, ptr %77, i32 0, i32 1
  store i32 %74, ptr %78, align 8, !tbaa !265
  call void @llvm.lifetime.end.p0(i64 4, ptr %15) #9
  br label %79

79:                                               ; preds = %64, %61
  %80 = load ptr, ptr %6, align 8, !tbaa !3
  %81 = getelementptr inbounds nuw %struct.WOLFSSL, ptr %80, i32 0, i32 48
  %82 = getelementptr inbounds nuw %struct.Keys, ptr %81, i32 0, i32 14
  %83 = load i32, ptr %82, align 4, !tbaa !348
  %84 = load i32, ptr %11, align 4, !tbaa !47
  %85 = add i32 %84, %83
  store i32 %85, ptr %11, align 4, !tbaa !47
  %86 = load i32, ptr %11, align 4, !tbaa !47
  %87 = load ptr, ptr %8, align 8, !tbaa !143
  store i32 %86, ptr %87, align 4, !tbaa !47
  store i32 0, ptr %5, align 4
  store i32 1, ptr %14, align 4
  br label %88

88:                                               ; preds = %79, %60, %41
  call void @llvm.lifetime.end.p0(i64 8, ptr %13) #9
  call void @llvm.lifetime.end.p0(i64 4, ptr %12) #9
  call void @llvm.lifetime.end.p0(i64 4, ptr %11) #9
  call void @llvm.lifetime.end.p0(i64 4, ptr %10) #9
  %89 = load i32, ptr %5, align 4
  ret i32 %89
}