; Function Attrs: nounwind uwtable
define range(i32 -373, 1) i32 @DoApplicationData(ptr noundef %0, ptr noundef %1, ptr noundef captures(none) %2, i32 noundef %3) local_unnamed_addr #5 {
  %5 = load i32, ptr %2, align 4, !tbaa !49
  %6 = zext i32 %5 to i64
  %7 = getelementptr inbounds nuw i8, ptr %1, i64 %6
  %8 = getelementptr inbounds nuw i8, ptr %0, i64 1046
  %9 = load i8, ptr %8, align 2, !tbaa !229
  %10 = icmp eq i8 %9, 0
  br i1 %10, label %11, label %24

11:                                               ; preds = %4
  %12 = icmp eq i32 %3, 0
  br i1 %12, label %13, label %SendAlert.exit

13:                                               ; preds = %11
  %14 = getelementptr inbounds nuw i8, ptr %0, i64 656
  %15 = getelementptr inbounds nuw i8, ptr %0, i64 660
  %16 = load i32, ptr %15, align 4, !tbaa !235
  %.not.i = icmp eq i32 %16, 0
  br i1 %.not.i, label %22, label %RetrySendAlert.exit.i

RetrySendAlert.exit.i:                            ; preds = %13
  %17 = load i32, ptr %14, align 16, !tbaa !236
  store i32 0, ptr %14, align 16, !tbaa !236
  store i32 0, ptr %15, align 4, !tbaa !235
  %18 = tail call fastcc i32 @SendAlert_ex(ptr noundef nonnull %0, i32 noundef %16, i32 noundef %17)
  %.not20.i = icmp eq i32 %18, 0
  br i1 %.not20.i, label %22, label %19

19:                                               ; preds = %RetrySendAlert.exit.i
  %20 = load i32, ptr %15, align 4, !tbaa !235
  %cond = icmp eq i32 %20, 2
  br i1 %cond, label %SendAlert.exit, label %21

21:                                               ; preds = %19
  store i32 10, ptr %14, align 16, !tbaa !236
  store i32 2, ptr %15, align 4, !tbaa !235
  br label %SendAlert.exit

22:                                               ; preds = %RetrySendAlert.exit.i, %13
  %23 = tail call fastcc i32 @SendAlert_ex(ptr noundef %0, i32 noundef 2, i32 noundef 10)
  br label %SendAlert.exit

24:                                               ; preds = %4
  %25 = getelementptr inbounds nuw i8, ptr %0, i64 692
  %26 = load i16, ptr %25, align 4, !tbaa !234
  %27 = zext i16 %26 to i32
  %28 = getelementptr inbounds nuw i8, ptr %0, i64 1008
  %29 = load i32, ptr %28, align 4, !tbaa !232
  %30 = sub i32 %27, %29
  %31 = icmp slt i32 %30, 0
  br i1 %31, label %32, label %45

32:                                               ; preds = %24
  %33 = icmp eq i32 %3, 0
  br i1 %33, label %34, label %SendAlert.exit

34:                                               ; preds = %32
  %35 = getelementptr inbounds nuw i8, ptr %0, i64 656
  %36 = getelementptr inbounds nuw i8, ptr %0, i64 660
  %37 = load i32, ptr %36, align 4, !tbaa !235
  %.not.i26 = icmp eq i32 %37, 0
  br i1 %.not.i26, label %43, label %RetrySendAlert.exit.i27

RetrySendAlert.exit.i27:                          ; preds = %34
  %38 = load i32, ptr %35, align 16, !tbaa !236
  store i32 0, ptr %35, align 16, !tbaa !236
  store i32 0, ptr %36, align 4, !tbaa !235
  %39 = tail call fastcc i32 @SendAlert_ex(ptr noundef nonnull %0, i32 noundef %37, i32 noundef %38)
  %.not20.i28 = icmp eq i32 %39, 0
  br i1 %.not20.i28, label %43, label %40

40:                                               ; preds = %RetrySendAlert.exit.i27
  %41 = load i32, ptr %36, align 4, !tbaa !235
  %cond31 = icmp eq i32 %41, 2
  br i1 %cond31, label %SendAlert.exit, label %42

42:                                               ; preds = %40
  store i32 10, ptr %35, align 16, !tbaa !236
  store i32 2, ptr %36, align 4, !tbaa !235
  br label %SendAlert.exit

43:                                               ; preds = %RetrySendAlert.exit.i27, %34
  %44 = tail call fastcc i32 @SendAlert_ex(ptr noundef %0, i32 noundef 2, i32 noundef 10)
  br label %SendAlert.exit

45:                                               ; preds = %24
  %.not = icmp eq i32 %29, %27
  br i1 %.not, label %50, label %46

46:                                               ; preds = %45
  %47 = add i32 %30, %5
  %48 = getelementptr inbounds nuw i8, ptr %0, i64 432
  store ptr %7, ptr %48, align 16, !tbaa !364
  %49 = getelementptr inbounds nuw i8, ptr %0, i64 440
  store i32 %30, ptr %49, align 8, !tbaa !224
  br label %50

50:                                               ; preds = %46, %45
  %.024 = phi i32 [ %47, %46 ], [ %5, %45 ]
  %51 = add i32 %.024, %29
  store i32 %51, ptr %2, align 4, !tbaa !49
  br label %SendAlert.exit

SendAlert.exit:                                   ; preds = %40, %19, %43, %42, %22, %21, %32, %11, %50
  %.0 = phi i32 [ 0, %50 ], [ -373, %11 ], [ -328, %32 ], [ -373, %21 ], [ -373, %22 ], [ -328, %42 ], [ -328, %43 ], [ -373, %19 ], [ -328, %40 ]
  ret i32 %.0
}